target datalayout = "e-m:e-p270:32:32-p271:32:32-p272:64:64-i64:64-i128:128-f80:128-n8:16:32:64-S128"
target triple = "x86_64-pc-linux-gnu"

%struct.VLCInitState = type { ptr, i32 }

@__const.mobiclip_init_static.state = private unnamed_addr constant { ptr, i32, [4 x i8] } { ptr @mobiclip_init_static.vlc_buf, i32 10240, [4 x i8] zeroinitializer }, align 8
@rl_vlc = internal global [2 x ptr] zeroinitializer, align 16
@mv_len = internal constant [16 x i8] c"\0A\08\08\07\08\08\08\07\08\08\08\07\07\07\07\06", align 16
@mv_vlc = internal global [2 x [16 x ptr]] zeroinitializer, align 16

; Function Attrs: cold nounwind optsize uwtable
define internal void @mobiclip_init_static() #0 {
  %1 = alloca %struct.VLCInitState, align 8
  %2 = alloca i32, align 4
  %3 = alloca i32, align 4
  %4 = alloca i32, align 4
  call void @llvm.lifetime.start.p0(i64 16, ptr %1) #11
  call void @llvm.memcpy.p0.p0.i64(ptr align 8 %1, ptr align 8 @__const.mobiclip_init_static.state, i64 16, i1 false)
  call void @llvm.lifetime.start.p0(i64 4, ptr %2) #11
  store i32 0, ptr %2, align 4, !tbaa !40
  br label %5

5:                                                ; preds = %52, %0
  %6 = load i32, ptr %2, align 4, !tbaa !40
  %7 = icmp slt i32 %6, 2
  br i1 %7, label %9, label %8

8:                                                ; preds = %5
  store i32 2, ptr %3, align 4
  call void @llvm.lifetime.end.p0(i64 4, ptr %2) #11
  br label %55

9:                                                ; preds = %5
  %10 = load i32, ptr %2, align 4, !tbaa !40
  %11 = icmp ne i32 %10, 0
  %12 = select i1 %11, ptr @syms1, ptr @syms0
  %13 = call ptr @ff_vlc_init_tables_from_lengths(ptr noundef %1, i32 noundef 12, i32 noundef 104, ptr noundef @bits0, i32 noundef 1, ptr noundef %12, i32 noundef 2, i32 noundef 2, i32 noundef 0, i32 noundef 0)
  %14 = load i32, ptr %2, align 4, !tbaa !40
  %15 = sext i32 %14 to i64
  %16 = getelementptr inbounds [2 x ptr], ptr @rl_vlc, i64 0, i64 %15
  store ptr %13, ptr %16, align 8, !tbaa !71
  call void @llvm.lifetime.start.p0(i64 4, ptr %4) #11
  store i32 0, ptr %4, align 4, !tbaa !40
  br label %17

17:                                               ; preds = %48, %9
  %18 = load i32, ptr %4, align 4, !tbaa !40
  %19 = icmp slt i32 %18, 16
  br i1 %19, label %21, label %20

20:                                               ; preds = %17
  store i32 5, ptr %3, align 4
  call void @llvm.lifetime.end.p0(i64 4, ptr %4) #11
  br label %51

21:                                               ; preds = %17
  %22 = load i32, ptr %4, align 4, !tbaa !40
  %23 = sext i32 %22 to i64
  %24 = getelementptr inbounds [16 x i8], ptr @mv_len, i64 0, i64 %23
  %25 = load i8, ptr %24, align 1, !tbaa !73
  %26 = zext i8 %25 to i32
  %27 = load i32, ptr %2, align 4, !tbaa !40
  %28 = sext i32 %27 to i64
  %29 = getelementptr inbounds [2 x [16 x [10 x i8]]], ptr @mv_bits, i64 0, i64 %28
  %30 = load i32, ptr %4, align 4, !tbaa !40
  %31 = sext i32 %30 to i64
  %32 = getelementptr inbounds [16 x [10 x i8]], ptr %29, i64 0, i64 %31
  %33 = getelementptr inbounds [10 x i8], ptr %32, i64 0, i64 0
  %34 = load i32, ptr %2, align 4, !tbaa !40
  %35 = sext i32 %34 to i64
  %36 = getelementptr inbounds [2 x [16 x [10 x i8]]], ptr @mv_syms, i64 0, i64 %35
  %37 = load i32, ptr %4, align 4, !tbaa !40
  %38 = sext i32 %37 to i64
  %39 = getelementptr inbounds [16 x [10 x i8]], ptr %36, i64 0, i64 %38
  %40 = getelementptr inbounds [10 x i8], ptr %39, i64 0, i64 0
  %41 = call ptr @ff_vlc_init_tables_from_lengths(ptr noundef %1, i32 noundef 6, i32 noundef %26, ptr noundef %33, i32 noundef 1, ptr noundef %40, i32 noundef 1, i32 noundef 1, i32 noundef 0, i32 noundef 0)
  %42 = load i32, ptr %2, align 4, !tbaa !40
  %43 = sext i32 %42 to i64
  %44 = getelementptr inbounds [2 x [16 x ptr]], ptr @mv_vlc, i64 0, i64 %43
  %45 = load i32, ptr %4, align 4, !tbaa !40
  %46 = sext i32 %45 to i64
  %47 = getelementptr inbounds [16 x ptr], ptr %44, i64 0, i64 %46
  store ptr %41, ptr %47, align 8, !tbaa !71
  br label %48

48:                                               ; preds = %21
  %49 = load i32, ptr %4, align 4, !tbaa !40
  %50 = add nsw i32 %49, 1
  store i32 %50, ptr %4, align 4, !tbaa !40
  br label %17, !llvm.loop !82

51:                                               ; preds = %20
  br label %52

52:                                               ; preds = %51
  %53 = load i32, ptr %2, align 4, !tbaa !40
  %54 = add nsw i32 %53, 1
  store i32 %54, ptr %2, align 4, !tbaa !40
  br label %5, !llvm.loop !83

55:                                               ; preds = %8
  call void @llvm.lifetime.end.p0(i64 16, ptr %1) #11
  ret void
}