; Function Attrs: cold nounwind optsize uwtable
define internal void @mobiclip_init_static() #0 {
  %1 = alloca %struct.VLCInitState, align 8
  call void @llvm.lifetime.start.p0(i64 16, ptr nonnull %1) #11
  call void @llvm.memcpy.p0.p0.i64(ptr noundef nonnull align 8 dereferenceable(16) %1, ptr noundef nonnull align 8 dereferenceable(16) @__const.mobiclip_init_static.state, i64 16, i1 false)
  br label %3

2:                                                ; preds = %7
  call void @llvm.lifetime.end.p0(i64 16, ptr nonnull %1) #11
  ret void

3:                                                ; preds = %0, %7
  %.not = phi i1 [ true, %0 ], [ false, %7 ]
  %indvars.iv17 = phi i64 [ 0, %0 ], [ 1, %7 ]
  %4 = select i1 %.not, ptr @syms0, ptr @syms1
  %5 = call ptr @ff_vlc_init_tables_from_lengths(ptr noundef nonnull %1, i32 noundef 12, i32 noundef 104, ptr noundef nonnull @bits0, i32 noundef 1, ptr noundef nonnull %4, i32 noundef 2, i32 noundef 2, i32 noundef 0, i32 noundef 0) #11
  %6 = getelementptr inbounds nuw [2 x ptr], ptr @rl_vlc, i64 0, i64 %indvars.iv17
  store ptr %5, ptr %6, align 8, !tbaa !70
  br label %8

7:                                                ; preds = %8
  br i1 %.not, label %3, label %2, !llvm.loop !82

8:                                                ; preds = %3, %8
  %indvars.iv = phi i64 [ 0, %3 ], [ %indvars.iv.next, %8 ]
  %9 = getelementptr inbounds nuw [16 x i8], ptr @mv_len, i64 0, i64 %indvars.iv
  %10 = load i8, ptr %9, align 1, !tbaa !51
  %11 = zext i8 %10 to i32
  %12 = getelementptr inbounds nuw [2 x [16 x [10 x i8]]], ptr @mv_bits, i64 0, i64 %indvars.iv17, i64 %indvars.iv
  %13 = getelementptr inbounds nuw [2 x [16 x [10 x i8]]], ptr @mv_syms, i64 0, i64 %indvars.iv17, i64 %indvars.iv
  %14 = call ptr @ff_vlc_init_tables_from_lengths(ptr noundef nonnull %1, i32 noundef 6, i32 noundef %11, ptr noundef nonnull %12, i32 noundef 1, ptr noundef nonnull %13, i32 noundef 1, i32 noundef 1, i32 noundef 0, i32 noundef 0) #11
  %15 = getelementptr inbounds nuw [2 x [16 x ptr]], ptr @mv_vlc, i64 0, i64 %indvars.iv17, i64 %indvars.iv
  store ptr %14, ptr %15, align 8, !tbaa !70
  %indvars.iv.next = add nuw nsw i64 %indvars.iv, 1
  %exitcond.not = icmp eq i64 %indvars.iv.next, 16
  br i1 %exitcond.not, label %7, label %8, !llvm.loop !83
}